target datalayout = "e-m:e-p270:32:32-p271:32:32-p272:64:64-i64:64-i128:128-f80:128-n8:16:32:64-S128"
target triple = "x86_64-pc-linux-gnu"

%struct.EVP_SM4_KEY = type { %union.anon, ptr, %union.anon.0 }
%union.anon = type { double, [120 x i8] }
%union.anon.0 = type { ptr }

; Function Attrs: nounwind uwtable
define internal i32 @sm4_ecb_cipher(ptr noundef %0, ptr noundef %1, ptr noundef %2, i64 noundef %3) #0 {
  %5 = alloca i32, align 4
  %6 = alloca ptr, align 8
  %7 = alloca ptr, align 8
  %8 = alloca ptr, align 8
  %9 = alloca i64, align 8
  %10 = alloca i64, align 8
  %11 = alloca i64, align 8
  %12 = alloca ptr, align 8
  %13 = alloca i32, align 4
  store ptr %0, ptr %6, align 8, !tbaa !3
  store ptr %1, ptr %7, align 8, !tbaa !8
  store ptr %2, ptr %8, align 8, !tbaa !8
  store i64 %3, ptr %9, align 8, !tbaa !15
  call void @llvm.lifetime.start.p0(i64 8, ptr %10) #3
  %14 = load ptr, ptr %6, align 8, !tbaa !3
  %15 = call i32 @EVP_CIPHER_CTX_get_block_size(ptr noundef %14)
  %16 = sext i32 %15 to i64
  store i64 %16, ptr %10, align 8, !tbaa !15
  call void @llvm.lifetime.start.p0(i64 8, ptr %11) #3
  call void @llvm.lifetime.start.p0(i64 8, ptr %12) #3
  %17 = load ptr, ptr %6, align 8, !tbaa !3
  %18 = call ptr @EVP_CIPHER_CTX_get_cipher_data(ptr noundef %17)
  store ptr %18, ptr %12, align 8, !tbaa !12
  %19 = load i64, ptr %9, align 8, !tbaa !15
  %20 = load i64, ptr %10, align 8, !tbaa !15
  %21 = icmp ult i64 %19, %20
  br i1 %21, label %22, label %23

22:                                               ; preds = %4
  store i32 1, ptr %5, align 4
  store i32 1, ptr %13, align 4
  br label %65

23:                                               ; preds = %4
  %24 = load ptr, ptr %12, align 8, !tbaa !12
  %25 = getelementptr inbounds nuw %struct.EVP_SM4_KEY, ptr %24, i32 0, i32 2
  %26 = load ptr, ptr %25, align 8, !tbaa !17
  %27 = icmp ne ptr %26, null
  br i1 %27, label %28, label %39

28:                                               ; preds = %23
  %29 = load ptr, ptr %12, align 8, !tbaa !12
  %30 = getelementptr inbounds nuw %struct.EVP_SM4_KEY, ptr %29, i32 0, i32 2
  %31 = load ptr, ptr %30, align 8, !tbaa !17
  %32 = load ptr, ptr %8, align 8, !tbaa !8
  %33 = load ptr, ptr %7, align 8, !tbaa !8
  %34 = load i64, ptr %9, align 8, !tbaa !15
  %35 = load ptr, ptr %12, align 8, !tbaa !12
  %36 = getelementptr inbounds nuw %struct.EVP_SM4_KEY, ptr %35, i32 0, i32 0
  %37 = load ptr, ptr %6, align 8, !tbaa !3
  %38 = call i32 @EVP_CIPHER_CTX_is_encrypting(ptr noundef %37)
  call void %31(ptr noundef %32, ptr noundef %33, i64 noundef %34, ptr noundef %36, i32 noundef %38)
  br label %64

39:                                               ; preds = %23
  store i64 0, ptr %11, align 8, !tbaa !15
  %40 = load i64, ptr %10, align 8, !tbaa !15
  %41 = load i64, ptr %9, align 8, !tbaa !15
  %42 = sub i64 %41, %40
  store i64 %42, ptr %9, align 8, !tbaa !15
  br label %43

43:                                               ; preds = %59, %39
  %44 = load i64, ptr %11, align 8, !tbaa !15
  %45 = load i64, ptr %9, align 8, !tbaa !15
  %46 = icmp ule i64 %44, %45
  br i1 %46, label %47, label %63

47:                                               ; preds = %43
  %48 = load ptr, ptr %12, align 8, !tbaa !12
  %49 = getelementptr inbounds nuw %struct.EVP_SM4_KEY, ptr %48, i32 0, i32 1
  %50 = load ptr, ptr %49, align 8, !tbaa !13
  %51 = load ptr, ptr %8, align 8, !tbaa !8
  %52 = load i64, ptr %11, align 8, !tbaa !15
  %53 = getelementptr inbounds nuw i8, ptr %51, i64 %52
  %54 = load ptr, ptr %7, align 8, !tbaa !8
  %55 = load i64, ptr %11, align 8, !tbaa !15
  %56 = getelementptr inbounds nuw i8, ptr %54, i64 %55
  %57 = load ptr, ptr %12, align 8, !tbaa !12
  %58 = getelementptr inbounds nuw %struct.EVP_SM4_KEY, ptr %57, i32 0, i32 0
  call void %50(ptr noundef %53, ptr noundef %56, ptr noundef %58)
  br label %59

59:                                               ; preds = %47
  %60 = load i64, ptr %10, align 8, !tbaa !15
  %61 = load i64, ptr %11, align 8, !tbaa !15
  %62 = add i64 %61, %60
  store i64 %62, ptr %11, align 8, !tbaa !15
  br label %43, !llvm.loop !18

63:                                               ; preds = %43
  br label %64

64:                                               ; preds = %63, %28
  store i32 1, ptr %5, align 4
  store i32 1, ptr %13, align 4
  br label %65

65:                                               ; preds = %64, %22
  call void @llvm.lifetime.end.p0(i64 8, ptr %12) #3
  call void @llvm.lifetime.end.p0(i64 8, ptr %11) #3
  call void @llvm.lifetime.end.p0(i64 8, ptr %10) #3
  %66 = load i32, ptr %5, align 4
  ret i32 %66
}