; Function Attrs: nounwind uwtable
define internal noundef i32 @sm4_ecb_cipher(ptr noundef %0, ptr noundef %1, ptr noundef %2, i64 noundef %3) #1 {
  %5 = tail call i32 @EVP_CIPHER_CTX_get_block_size(ptr noundef %0) #4
  %6 = sext i32 %5 to i64
  %7 = tail call ptr @EVP_CIPHER_CTX_get_cipher_data(ptr noundef %0) #4
  %8 = icmp ult i64 %3, %6
  br i1 %8, label %.loopexit, label %9

9:                                                ; preds = %4
  %10 = getelementptr inbounds nuw i8, ptr %7, i64 136
  %11 = load ptr, ptr %10, align 8, !tbaa !8
  %.not = icmp eq ptr %11, null
  br i1 %.not, label %14, label %12

12:                                               ; preds = %9
  %13 = tail call i32 @EVP_CIPHER_CTX_is_encrypting(ptr noundef %0) #4
  tail call void %11(ptr noundef %2, ptr noundef %1, i64 noundef %3, ptr noundef nonnull %7, i32 noundef %13) #4
  br label %.loopexit

14:                                               ; preds = %9
  %15 = sub i64 %3, %6
  %16 = getelementptr inbounds nuw i8, ptr %7, i64 128
  br label %17

17:                                               ; preds = %14, %17
  %.02327 = phi i64 [ 0, %14 ], [ %21, %17 ]
  %18 = load ptr, ptr %16, align 8, !tbaa !3
  %19 = getelementptr inbounds nuw i8, ptr %2, i64 %.02327
  %20 = getelementptr inbounds nuw i8, ptr %1, i64 %.02327
  tail call void %18(ptr noundef %19, ptr noundef %20, ptr noundef nonnull %7) #4
  %21 = add i64 %.02327, %6
  %.not26 = icmp ugt i64 %21, %15
  br i1 %.not26, label %.loopexit, label %17, !llvm.loop !9

.loopexit:                                        ; preds = %17, %12, %4
  ret i32 1
}